target datalayout = "e-m:e-p270:32:32-p271:32:32-p272:64:64-i64:64-i128:128-f80:128-n8:16:32:64-S128"
target triple = "x86_64-unknown-linux-gnu"

%struct.grpc_call_element = type { ptr, ptr, ptr }
%struct.connected_channel_channel_data = type { ptr }

; Function Attrs: mustprogress uwtable
define internal void @_ZL26set_pollset_or_pollset_setP17grpc_call_elementP19grpc_polling_entity(ptr noundef %elem, ptr noundef %pollent) #5 {
entry:
  %elem.addr = alloca ptr, align 8
  %pollent.addr = alloca ptr, align 8
  %calld = alloca ptr, align 8
  %chand = alloca ptr, align 8
  store ptr %elem, ptr %elem.addr, align 8
  store ptr %pollent, ptr %pollent.addr, align 8
  %0 = load ptr, ptr %elem.addr, align 8
  %call_data = getelementptr inbounds %struct.grpc_call_element, ptr %0, i32 0, i32 2
  %1 = load ptr, ptr %call_data, align 8
  store ptr %1, ptr %calld, align 8
  %2 = load ptr, ptr %elem.addr, align 8
  %channel_data = getelementptr inbounds %struct.grpc_call_element, ptr %2, i32 0, i32 1
  %3 = load ptr, ptr %channel_data, align 8
  store ptr %3, ptr %chand, align 8
  %4 = load ptr, ptr %chand, align 8
  %transport = getelementptr inbounds %struct.connected_channel_channel_data, ptr %4, i32 0, i32 0
  %5 = load ptr, ptr %transport, align 8
  %6 = load ptr, ptr %calld, align 8
  %add.ptr = getelementptr inbounds i8, ptr %6, i64 512
  %7 = load ptr, ptr %pollent.addr, align 8
  call void @_ZN9grpc_core9Transport16SetPollingEntityEP11grpc_streamP19grpc_polling_entity(ptr noundef nonnull align 8 dereferenceable(8) %5, ptr noundef %add.ptr, ptr noundef %7)
  ret void
}