; Function Attrs: mustprogress uwtable
define internal void @_ZL26set_pollset_or_pollset_setP17grpc_call_elementP19grpc_polling_entity(ptr nocapture noundef readonly %elem, ptr noundef %pollent) #3 {
entry:
  %call_data = getelementptr inbounds i8, ptr %elem, i64 16
  %0 = load ptr, ptr %call_data, align 8
  %channel_data = getelementptr inbounds i8, ptr %elem, i64 8
  %1 = load ptr, ptr %channel_data, align 8
  %2 = load ptr, ptr %1, align 8
  %add.ptr = getelementptr inbounds i8, ptr %0, i64 512
  tail call void @_ZN9grpc_core9Transport16SetPollingEntityEP11grpc_streamP19grpc_polling_entity(ptr noundef nonnull align 8 dereferenceable(8) %2, ptr noundef nonnull %add.ptr, ptr noundef %pollent)
  ret void
}